Certificate:
    Data:
        Version: 3 (0x2)
        Serial Number: 4096 (0x1000)
        Signature Algorithm: sha256WithRSAEncryption
        Issuer: C=BD, ST=DHAKA, L=GULSHAN, O=SUST, OU=SWE, CN=MY LAB CA/emailAddress=riazrifat49@gmail.com
        Validity
            Not Before: Nov  8 15:36:39 2025 GMT
            Not After : Nov  8 15:36:39 2026 GMT
        Subject: C=BD, ST=DHAKA, O=SUST, OU=SWE, CN=example.com/emailAddress=riazrifat49@gmail.com
        Subject Public Key Info:
            Public Key Algorithm: rsaEncryption
                Public-Key: (2048 bit)
                Modulus:
                    00:90:22:81:c9:7e:36:bb:13:87:90:df:ff:37:0a:
                    1e:b1:45:31:f2:52:4b:6e:22:e1:5a:9e:50:6e:ff:
                    bc:71:f1:4b:8e:be:b6:ae:f7:e2:94:4e:f2:e4:07:
                    1c:d3:b4:02:e4:d6:cc:84:5f:fa:3f:dd:d4:f9:81:
                    b4:fc:2d:6b:51:d7:99:68:82:83:02:d7:2f:f6:cc:
                    e3:72:7f:b6:43:2e:5e:62:9d:01:2e:3e:8f:60:77:
                    c3:aa:7d:c6:58:99:ba:4d:6a:bc:cf:2e:1c:e6:1b:
                    73:30:a5:5c:46:b8:69:0d:00:90:57:b8:3c:2a:02:
                    53:3d:09:21:50:2d:7d:4a:30:08:8f:a2:1d:9b:73:
                    d8:be:80:fd:9f:07:02:24:35:f7:08:95:46:e6:60:
                    b9:b3:6d:a5:9a:7b:87:44:86:4e:b5:a4:63:b4:72:
                    b7:8d:e3:24:f8:0d:15:a8:aa:29:9d:c6:1a:65:a7:
                    5e:fc:70:67:78:e8:4c:9f:bc:63:28:e8:03:e1:24:
                    74:e9:17:b0:b8:5e:cc:c2:e1:b7:dc:88:2a:ee:d0:
                    0d:95:50:b7:40:be:bc:d5:a2:d7:3c:15:db:31:1f:
                    1c:40:48:94:c5:40:d4:d3:dd:71:5b:a3:14:95:24:
                    68:09:8f:2b:f8:b6:7e:ae:94:40:f6:61:f0:a6:bd:
                    13:93
                Exponent: 65537 (0x10001)
        X509v3 extensions:
            X509v3 Basic Constraints: 
                CA:FALSE
            X509v3 Subject Key Identifier: 
                82:0E:56:49:88:44:26:90:DB:7E:69:44:3E:DD:00:1C:91:8C:06:6F
            X509v3 Authority Key Identifier: 
                CB:EE:84:C3:23:69:B7:CC:F8:4A:85:AC:B4:D8:ED:09:C1:67:C6:C3
    Signature Algorithm: sha256WithRSAEncryption
    Signature Value:
        58:77:18:8f:19:12:f4:44:89:69:31:24:d7:90:43:76:6f:84:
        1a:78:ce:79:7f:a7:fd:b8:5b:4c:bc:18:f0:a8:9d:09:f8:42:
        30:11:31:3d:ec:6c:33:0f:9f:63:7e:4c:98:b1:b1:ba:84:26:
        9f:9a:6a:16:90:b5:1a:01:7c:33:f9:39:f2:80:87:71:dc:ab:
        d6:da:5c:20:fe:ce:7c:af:0b:4c:aa:61:8a:15:a2:d6:33:73:
        d3:d5:44:04:47:6d:cd:14:dd:12:49:1f:1a:6b:8b:a9:01:4a:
        91:c7:e9:39:56:43:9b:c2:24:b9:bd:e8:fe:81:2e:4f:6f:b7:
        af:a5:07:31:ea:89:7b:cc:e2:90:16:04:16:97:b7:36:32:f5:
        d2:9d:68:ef:fc:5d:32:7f:bd:1a:50:26:cf:30:bd:de:ea:ac:
        16:27:04:2e:70:8f:57:91:57:d8:23:55:6f:95:6e:8d:96:d9:
        db:0d:ad:6b:76:91:ad:bc:93:68:d7:8e:67:ff:cd:0b:9f:53:
        1d:b1:03:d2:9d:71:2b:be:95:31:eb:06:06:d2:96:1f:f5:20:
        d0:08:61:9b:7f:ce:cd:9d:91:8b:df:8c:60:3b:62:af:3d:aa:
        76:d9:aa:bf:1a:e5:e1:30:e0:62:49:05:1e:c5:28:f5:fd:63:
        19:49:a2:10
-----BEGIN CERTIFICATE-----
MIIDxjCCAq6gAwIBAgICEAAwDQYJKoZIhvcNAQELBQAwgYYxCzAJBgNVBAYTAkJE
MQ4wDAYDVQQIDAVESEFLQTEQMA4GA1UEBwwHR1VMU0hBTjENMAsGA1UECgwEU1VT
VDEMMAoGA1UECwwDU1dFMRIwEAYDVQQDDAlNWSBMQUIgQ0ExJDAiBgkqhkiG9w0B
CQEWFXJpYXpyaWZhdDQ5QGdtYWlsLmNvbTAeFw0yNTExMDgxNTM2MzlaFw0yNjEx
MDgxNTM2MzlaMHYxCzAJBgNVBAYTAkJEMQ4wDAYDVQQIDAVESEFLQTENMAsGA1UE
CgwEU1VTVDEMMAoGA1UECwwDU1dFMRQwEgYDVQQDDAtleGFtcGxlLmNvbTEkMCIG
CSqGSIb3DQEJARYVcmlhenJpZmF0NDlAZ21haWwuY29tMIIBIjANBgkqhkiG9w0B
AQEFAAOCAQ8AMIIBCgKCAQEAkCKByX42uxOHkN//NwoesUUx8lJLbiLhWp5Qbv+8
cfFLjr62rvfilE7y5Acc07QC5NbMhF/6P93U+YG0/C1rUdeZaIKDAtcv9szjcn+2
Qy5eYp0BLj6PYHfDqn3GWJm6TWq8zy4c5htzMKVcRrhpDQCQV7g8KgJTPQkhUC19
SjAIj6Idm3PYvoD9nwcCJDX3CJVG5mC5s22lmnuHRIZOtaRjtHK3jeMk+A0VqKop
ncYaZade/HBneOhMn7xjKOgD4SR06RewuF7MwuG33Igq7tANlVC3QL681aLXPBXb
MR8cQEiUxUDU091xW6MUlSRoCY8r+LZ+rpRA9mHwpr0TkwIDAQABo00wSzAJBgNV
HRMEAjAAMB0GA1UdDgQWBBSCDlZJiEQmkNt+aUQ+3QAckYwGbzAfBgNVHSMEGDAW
gBTL7oTDI2m3zPhKhay02O0JwWfGwzANBgkqhkiG9w0BAQsFAAOCAQEAWHcYjxkS
9ESJaTEk15BDdm+EGnjOeX+n/bhbTLwY8KidCfhCMBExPexsMw+fY35MmLGxuoQm
n5pqFpC1GgF8M/k58oCHcdyr1tpcIP7OfK8LTKphihWi1jNz09VEBEdtzRTdEkkf
GmuLqQFKkcfpOVZDm8Ikub3o/oEuT2+3r6UHMeqJe8zikBYEFpe3NjL10p1o7/xd
Mn+9GlAmzzC93uqsFicELnCPV5FX2CNVb5VujZbZ2w2ta3aRrbyTaNeOZ//NC59T
HbED0p1xK76VMesGBtKWH/Ug0Ahhm3/OzZ2Ri9+MYDtirz2qdtmqvxrl4TDgYkkF
HsUo9f1jGUmiEA==
-----END CERTIFICATE-----
