-----BEGIN ENCRYPTED PRIVATE KEY-----
MIIFHDBOBgkqhkiG9w0BBQ0wQTApBgkqhkiG9w0BBQwwHAQINLoNuND+RjUCAggA
MAwGCCqGSIb3DQIJBQAwFAYIKoZIhvcNAwcECIGJ1qphC2pDBIIEyOwdhkchofg6
XBW4KeKdvA+6o+dZ9JqbIYl0k5+M0r3uu/2/lBTZoh5eSE4HLo1lZGFm9KMLrTgi
5/GGfkBlZXH5/meWF3LqzdZPqZDLbGpaV/8bBNSHNjCfpODaZvMDJUwqnM9xNqAi
kMKM39rcBwxixbSYW5/nYK47peWQhzWI4YS4LC4X+W71/9/zH5mNVyAylUXFgXoy
ft+WIFUMDtH/yQ2OkgPgY1IK2gUMkbSygvxg3Uk2HlAq0bEz3qqkPQQEU2YI1JOg
eM8+nf9kPJWGdZVcW5iDDFf18Vr6dk+C8MhJUg8eB8ZXHZ4OY3BfVEh1x6pZJbYS
oENzys3K4gi6C4Ii6yvBO0wk4ZQ1ffH0gb5Z4SMTL6bDW+6KywUrz+3p3NTnR4S2
h7tSTD31H772XUwVPK/x3kK2S++4Dc39Hp7OeBN7uXqsqNDZAtjF5Mur3pZaoHHy
bkWhku6Azc48INLsh5Hce9/oqp0s2e9mXxfAVHF0y0KCIrAdOCtos9M2rBTIHg8u
TK98NxTa5V2pATc3eFvYbpRbySALRT+hIqekDpK1cR7P49M39buHlZiYiAAhHKM1
RKg29wBkEcq5HgZlE2fvVLepKJjaf524Q4w8pwFUBleeuiPN9h1Nkf6QQEzMGgnb
N3z/SYcb2YMN33RyYwTIDiV+ytps4oZrVZoSr4N0v6CIoeCh8/WqcMb24Ph2uC+P
cV5/CmkC+OiNdLwCMsHuwH+vvMz8UhmMJr6fsiZYFLW38FDdC0zWZ6vpsOnOxYBq
1El8KKXcvd51tHgk8mdaiSwXQcV22cxJORJ1aQX3D7XwgUrTkTOOX9AN17TcqFZD
n0LL/n81Tv2ZP2TmeRjBmqLowpydrG6azOYrxHMW42b/ynWqoMiWWbUaSrjdjl58
HkBZcs2mFiel74IXL8h6vnDSMb8Qf30GFtoOlfpuawc0eKTb0pW2aeC26fJ1yLj/
azYUIMg0YYDELSgtWXeHmPAE2qz8Gb/+xyVTlNb8aoGkU0+ml2aDtng8wXS+cKtK
le/hhKY3SwtDXGbvD0+jCWiwgZ7wjpxS2qUxF5ecDva4hzdi7TQ01IVWCvO93wtl
iC0YJm8h99cnljz65eU8qj1lr9zxGXONRhlUAXemFdyYU6gCRWIXXwC12y+GL5pg
6MPJuGErkQecXRZVv1rfP2ohwhGRi1L0Y3izaCV9rO2WFL6OfTcYnU2lSUFynTFY
+1UPTPNJqSHDcb6fnW73fa3bHIm27R1naB3uH+rca00lsyLBFWBW5xCi1odSTcQ+
Vtc1BvQKN9BFs2T7wwCeUlQWEElBLApa/ECxhUQhlXVCkBmAGaWF2wvlG95Rwxh5
p8tZtGYFJxJ7HE4SiRvfCswFUr3VzfYEzOkaZ/zd+AJYP7h8XDm6DSwcS97/Swja
VSZY2LmNZDTCeHOtgK169D4m3kGT9X56jtifcgMpt1+BzowYZEo6sezC4NCqpvBU
Lp6smXIur7s3LxXQMhf5RiamxWry8CotfEQI7hDKciBVVwckDOq6qdjn0Mh1R2at
ZLcaXoLwTZtv0sW8Re8c+0QmzaRZ5mVvLahQIkabhf1Z8xl2sQvdz/6w4MLPAkQp
4Mdq9Nwevn0XLtfTx6igcQ==
-----END ENCRYPTED PRIVATE KEY-----
Certificate:
    Data:
        Version: 3 (0x2)
        Serial Number: 4097 (0x1001)
        Signature Algorithm: sha256WithRSAEncryption
        Issuer: C=BD, ST=DHAKA, L=GULSHAN, O=SUST, OU=SWE, CN=MY LAB CA/emailAddress=riazrifat49@gmail.com
        Validity
            Not Before: Nov  8 16:49:56 2025 GMT
            Not After : Nov  8 16:49:56 2026 GMT
        Subject: C=BD, ST=DHAKA, O=SUST, OU=SWE, CN=webserverlab.com/emailAddress=riaz@gmail.com
        Subject Public Key Info:
            Public Key Algorithm: rsaEncryption
                Public-Key: (2048 bit)
                Modulus:
                    00:e1:b8:52:c6:92:84:9e:65:39:df:94:c5:64:0a:
                    66:b9:50:af:68:9c:56:85:55:78:e9:4a:05:84:f3:
                    6c:81:19:26:c5:e3:ff:a7:d9:6f:e3:61:dc:61:76:
                    fa:e8:c6:a4:3d:08:21:0b:6d:45:fb:40:b3:e1:ff:
                    fa:bb:44:6f:dd:49:3b:b1:31:88:65:8d:d3:17:0d:
                    8b:ba:d2:34:86:5c:c0:e6:57:f2:14:d3:4d:4e:c7:
                    78:de:cb:29:30:29:c9:52:4c:00:2a:ee:eb:c4:08:
                    5b:f6:dd:5c:3e:60:ff:56:70:bc:1b:91:96:4e:ff:
                    21:19:de:91:ad:20:a1:f1:f8:2b:c4:d5:c7:8e:fa:
                    da:fd:79:2d:14:01:64:1a:a9:2f:c0:7c:a5:f7:cd:
                    58:15:c3:d7:81:2c:00:cc:f7:94:01:5d:75:24:f7:
                    31:92:d0:c8:d0:a1:9d:dc:12:8c:ec:0a:47:b8:a7:
                    b4:1b:cf:24:55:89:a4:e8:df:23:1b:e5:c8:99:5a:
                    52:15:bc:b5:d7:4f:14:9b:c0:5e:d8:a7:88:c9:ff:
                    00:43:62:d6:14:13:05:2a:80:76:78:70:d6:f4:5a:
                    06:dc:63:c0:99:a6:f1:eb:df:dc:06:36:6b:cd:47:
                    c8:c3:f0:e1:06:70:18:ff:cf:48:40:2f:69:f1:1c:
                    8d:1f
                Exponent: 65537 (0x10001)
        X509v3 extensions:
            X509v3 Basic Constraints: 
                CA:FALSE
            X509v3 Subject Key Identifier: 
                C2:3D:44:43:03:FC:F2:1F:D8:41:A9:D1:3B:A4:16:A4:69:DD:44:B3
            X509v3 Authority Key Identifier: 
                CB:EE:84:C3:23:69:B7:CC:F8:4A:85:AC:B4:D8:ED:09:C1:67:C6:C3
    Signature Algorithm: sha256WithRSAEncryption
    Signature Value:
        49:33:83:b8:a4:2c:62:34:af:33:23:27:a2:93:59:c1:aa:73:
        96:6c:97:ab:2a:46:5d:ee:4a:d8:9c:1d:38:2a:19:3c:db:48:
        35:76:cf:30:f0:14:9a:28:b5:ee:2c:b3:c7:4d:65:13:93:99:
        78:88:41:64:bc:ca:ce:1d:27:68:64:2f:e1:4d:3f:38:e2:78:
        4a:94:c2:26:c5:b4:10:86:18:30:e0:18:78:41:61:a4:de:f6:
        9c:63:3b:32:6b:dd:3a:da:b9:cf:76:fb:dc:f3:61:52:b6:c4:
        01:e4:bf:e6:18:ce:86:8e:ce:44:21:c4:36:b3:68:4c:27:e4:
        5d:b8:27:16:0b:f2:a0:89:f8:dd:0b:7d:54:78:2a:d3:5c:f5:
        98:00:20:2f:36:29:e4:94:e0:08:e5:e6:71:60:1f:2a:f6:03:
        55:25:f4:29:82:e9:16:f4:f5:6e:94:ac:e6:bd:e2:25:1d:fa:
        14:80:36:59:26:e2:fa:25:bb:7b:00:b1:2e:55:9b:94:9e:e6:
        00:00:cd:44:3f:0e:8d:01:a9:4b:79:08:fc:af:96:e3:09:ff:
        02:70:9b:73:93:ee:20:a8:da:4e:dd:dc:34:cb:b7:65:19:a3:
        98:9e:70:67:03:d9:8d:f2:41:7c:bd:3e:6a:c9:6c:1a:3f:c4:
        1a:03:ee:61
-----BEGIN CERTIFICATE-----
MIIDxDCCAqygAwIBAgICEAEwDQYJKoZIhvcNAQELBQAwgYYxCzAJBgNVBAYTAkJE
MQ4wDAYDVQQIDAVESEFLQTEQMA4GA1UEBwwHR1VMU0hBTjENMAsGA1UECgwEU1VT
VDEMMAoGA1UECwwDU1dFMRIwEAYDVQQDDAlNWSBMQUIgQ0ExJDAiBgkqhkiG9w0B
CQEWFXJpYXpyaWZhdDQ5QGdtYWlsLmNvbTAeFw0yNTExMDgxNjQ5NTZaFw0yNjEx
MDgxNjQ5NTZaMHQxCzAJBgNVBAYTAkJEMQ4wDAYDVQQIDAVESEFLQTENMAsGA1UE
CgwEU1VTVDEMMAoGA1UECwwDU1dFMRkwFwYDVQQDDBB3ZWJzZXJ2ZXJsYWIuY29t
MR0wGwYJKoZIhvcNAQkBFg5yaWF6QGdtYWlsLmNvbTCCASIwDQYJKoZIhvcNAQEB
BQADggEPADCCAQoCggEBAOG4UsaShJ5lOd+UxWQKZrlQr2icVoVVeOlKBYTzbIEZ
JsXj/6fZb+Nh3GF2+ujGpD0IIQttRftAs+H/+rtEb91JO7ExiGWN0xcNi7rSNIZc
wOZX8hTTTU7HeN7LKTApyVJMACru68QIW/bdXD5g/1ZwvBuRlk7/IRneka0gofH4
K8TVx4762v15LRQBZBqpL8B8pffNWBXD14EsAMz3lAFddST3MZLQyNChndwSjOwK
R7intBvPJFWJpOjfIxvlyJlaUhW8tddPFJvAXtiniMn/AENi1hQTBSqAdnhw1vRa
BtxjwJmm8evf3AY2a81HyMPw4QZwGP/PSEAvafEcjR8CAwEAAaNNMEswCQYDVR0T
BAIwADAdBgNVHQ4EFgQUwj1EQwP88h/YQanRO6QWpGndRLMwHwYDVR0jBBgwFoAU
y+6EwyNpt8z4SoWstNjtCcFnxsMwDQYJKoZIhvcNAQELBQADggEBAEkzg7ikLGI0
rzMjJ6KTWcGqc5Zsl6sqRl3uSticHTgqGTzbSDV2zzDwFJoote4ss8dNZROTmXiI
QWS8ys4dJ2hkL+FNPzjieEqUwibFtBCGGDDgGHhBYaTe9pxjOzJr3Trauc92+9zz
YVK2xAHkv+YYzoaOzkQhxDazaEwn5F24JxYL8qCJ+N0LfVR4KtNc9ZgAIC82KeSU
4Ajl5nFgHyr2A1Ul9CmC6Rb09W6UrOa94iUd+hSANlkm4volu3sAsS5Vm5Se5gAA
zUQ/Do0BqUt5CPyvluMJ/wJwm3OT7iCo2k7d3DTLt2UZo5iecGcD2Y3yQXy9PmrJ
bBo/xBoD7mE=
-----END CERTIFICATE-----
